; ModuleID = '9/1376.c'
source_filename = "9/1376.c"
target datalayout = "e-m:e-p270:32:32-p271:32:32-p272:64:64-i64:64-f80:128-n8:16:32:64-S128"
target triple = "x86_64-pc-linux-gnu"

%struct.patient = type { [11 x i8], i32 }

@.str = private unnamed_addr constant [3 x i8] c"%d\00", align 1
@.str.1 = private unnamed_addr constant [6 x i8] c"%s %d\00", align 1
@.str.2 = private unnamed_addr constant [4 x i8] c"%s\0A\00", align 1

; Function Attrs: noinline nounwind uwtable
define dso_local i32 @main() #0 {
  %1 = alloca i32, align 4
  %2 = alloca [100 x i32], align 16
  %3 = alloca i32, align 4
  %4 = alloca i32, align 4
  %5 = alloca i32, align 4
  %6 = alloca i32, align 4
  %7 = alloca [100 x %struct.patient], align 16
  store i32 0, i32* %1, align 4
  %8 = call i32 (i8*, ...) @__isoc99_scanf(i8* getelementptr inbounds ([3 x i8], [3 x i8]* @.str, i64 0, i64 0), i32* %3)
  store i32 0, i32* %4, align 4
  br label %9

9:                                                ; preds = %44, %0
  %10 = load i32, i32* %4, align 4
  %11 = load i32, i32* %3, align 4
  %12 = icmp slt i32 %10, %11
  br i1 %12, label %13, label %47

13:                                               ; preds = %9
  %14 = load i32, i32* %4, align 4
  %15 = sext i32 %14 to i64
  %16 = getelementptr inbounds [100 x %struct.patient], [100 x %struct.patient]* %7, i64 0, i64 %15
  %17 = getelementptr inbounds %struct.patient, %struct.patient* %16, i32 0, i32 0
  %18 = getelementptr inbounds [11 x i8], [11 x i8]* %17, i64 0, i64 0
  %19 = load i32, i32* %4, align 4
  %20 = sext i32 %19 to i64
  %21 = getelementptr inbounds [100 x %struct.patient], [100 x %struct.patient]* %7, i64 0, i64 %20
  %22 = getelementptr inbounds %struct.patient, %struct.patient* %21, i32 0, i32 1
  %23 = call i32 (i8*, ...) @__isoc99_scanf(i8* getelementptr inbounds ([6 x i8], [6 x i8]* @.str.1, i64 0, i64 0), i8* %18, i32* %22)
  %24 = load i32, i32* %4, align 4
  %25 = sext i32 %24 to i64
  %26 = getelementptr inbounds [100 x %struct.patient], [100 x %struct.patient]* %7, i64 0, i64 %25
  %27 = getelementptr inbounds %struct.patient, %struct.patient* %26, i32 0, i32 1
  %28 = load i32, i32* %27, align 4
  %29 = icmp sge i32 %28, 60
  br i1 %29, label %30, label %39

30:                                               ; preds = %13
  %31 = load i32, i32* %4, align 4
  %32 = sext i32 %31 to i64
  %33 = getelementptr inbounds [100 x %struct.patient], [100 x %struct.patient]* %7, i64 0, i64 %32
  %34 = getelementptr inbounds %struct.patient, %struct.patient* %33, i32 0, i32 1
  %35 = load i32, i32* %34, align 4
  %36 = load i32, i32* %4, align 4
  %37 = sext i32 %36 to i64
  %38 = getelementptr inbounds [100 x i32], [100 x i32]* %2, i64 0, i64 %37
  store i32 %35, i32* %38, align 4
  br label %43

39:                                               ; preds = %13
  %40 = load i32, i32* %4, align 4
  %41 = sext i32 %40 to i64
  %42 = getelementptr inbounds [100 x i32], [100 x i32]* %2, i64 0, i64 %41
  store i32 0, i32* %42, align 4
  br label %43

43:                                               ; preds = %39, %30
  br label %44

44:                                               ; preds = %43
  %45 = load i32, i32* %4, align 4
  %46 = add nsw i32 %45, 1
  store i32 %46, i32* %4, align 4
  br label %9

47:                                               ; preds = %9
  store i32 0, i32* %5, align 4
  br label %48

48:                                               ; preds = %94, %47
  %49 = load i32, i32* %5, align 4
  %50 = load i32, i32* %3, align 4
  %51 = sub nsw i32 %50, 1
  %52 = icmp slt i32 %49, %51
  br i1 %52, label %53, label %97

53:                                               ; preds = %48
  %54 = load i32, i32* %3, align 4
  %55 = sub nsw i32 %54, 1
  store i32 %55, i32* %4, align 4
  br label %56

56:                                               ; preds = %90, %53
  %57 = load i32, i32* %4, align 4
  %58 = load i32, i32* %5, align 4
  %59 = icmp sgt i32 %57, %58
  br i1 %59, label %60, label %93

60:                                               ; preds = %56
  %61 = load i32, i32* %4, align 4
  %62 = sub nsw i32 %61, 1
  %63 = sext i32 %62 to i64
  %64 = getelementptr inbounds [100 x i32], [100 x i32]* %2, i64 0, i64 %63
  %65 = load i32, i32* %64, align 4
  %66 = load i32, i32* %4, align 4
  %67 = sext i32 %66 to i64
  %68 = getelementptr inbounds [100 x i32], [100 x i32]* %2, i64 0, i64 %67
  %69 = load i32, i32* %68, align 4
  %70 = icmp slt i32 %65, %69
  br i1 %70, label %71, label %89

71:                                               ; preds = %60
  %72 = load i32, i32* %4, align 4
  %73 = sub nsw i32 %72, 1
  %74 = sext i32 %73 to i64
  %75 = getelementptr inbounds [100 x i32], [100 x i32]* %2, i64 0, i64 %74
  %76 = load i32, i32* %75, align 4
  store i32 %76, i32* %6, align 4
  %77 = load i32, i32* %4, align 4
  %78 = sext i32 %77 to i64
  %79 = getelementptr inbounds [100 x i32], [100 x i32]* %2, i64 0, i64 %78
  %80 = load i32, i32* %79, align 4
  %81 = load i32, i32* %4, align 4
  %82 = sub nsw i32 %81, 1
  %83 = sext i32 %82 to i64
  %84 = getelementptr inbounds [100 x i32], [100 x i32]* %2, i64 0, i64 %83
  store i32 %80, i32* %84, align 4
  %85 = load i32, i32* %6, align 4
  %86 = load i32, i32* %4, align 4
  %87 = sext i32 %86 to i64
  %88 = getelementptr inbounds [100 x i32], [100 x i32]* %2, i64 0, i64 %87
  store i32 %85, i32* %88, align 4
  br label %89

89:                                               ; preds = %71, %60
  br label %90

90:                                               ; preds = %89
  %91 = load i32, i32* %4, align 4
  %92 = add nsw i32 %91, -1
  store i32 %92, i32* %4, align 4
  br label %56

93:                                               ; preds = %56
  br label %94

94:                                               ; preds = %93
  %95 = load i32, i32* %5, align 4
  %96 = add nsw i32 %95, 1
  store i32 %96, i32* %5, align 4
  br label %48

97:                                               ; preds = %48
  store i32 0, i32* %4, align 4
  br label %98

98:                                               ; preds = %141, %97
  %99 = load i32, i32* %4, align 4
  %100 = load i32, i32* %3, align 4
  %101 = icmp slt i32 %99, %100
  br i1 %101, label %102, label %144

102:                                              ; preds = %98
  store i32 0, i32* %5, align 4
  br label %103

103:                                              ; preds = %137, %102
  %104 = load i32, i32* %5, align 4
  %105 = load i32, i32* %3, align 4
  %106 = icmp slt i32 %104, %105
  br i1 %106, label %107, label %140

107:                                              ; preds = %103
  %108 = load i32, i32* %4, align 4
  %109 = sext i32 %108 to i64
  %110 = getelementptr inbounds [100 x i32], [100 x i32]* %2, i64 0, i64 %109
  %111 = load i32, i32* %110, align 4
  %112 = load i32, i32* %5, align 4
  %113 = sext i32 %112 to i64
  %114 = getelementptr inbounds [100 x %struct.patient], [100 x %struct.patient]* %7, i64 0, i64 %113
  %115 = getelementptr inbounds %struct.patient, %struct.patient* %114, i32 0, i32 1
  %116 = load i32, i32* %115, align 4
  %117 = icmp eq i32 %111, %116
  br i1 %117, label %118, label %136

118:                                              ; preds = %107
  %119 = load i32, i32* %4, align 4
  %120 = sext i32 %119 to i64
  %121 = getelementptr inbounds [100 x i32], [100 x i32]* %2, i64 0, i64 %120
  %122 = load i32, i32* %121, align 4
  %123 = load i32, i32* %4, align 4
  %124 = sub nsw i32 %123, 1
  %125 = sext i32 %124 to i64
  %126 = getelementptr inbounds [100 x i32], [100 x i32]* %2, i64 0, i64 %125
  %127 = load i32, i32* %126, align 4
  %128 = icmp ne i32 %122, %127
  br i1 %128, label %129, label %136

129:                                              ; preds = %118
  %130 = load i32, i32* %5, align 4
  %131 = sext i32 %130 to i64
  %132 = getelementptr inbounds [100 x %struct.patient], [100 x %struct.patient]* %7, i64 0, i64 %131
  %133 = getelementptr inbounds %struct.patient, %struct.patient* %132, i32 0, i32 0
  %134 = getelementptr inbounds [11 x i8], [11 x i8]* %133, i64 0, i64 0
  %135 = call i32 (i8*, ...) @printf(i8* getelementptr inbounds ([4 x i8], [4 x i8]* @.str.2, i64 0, i64 0), i8* %134)
  br label %136

136:                                              ; preds = %129, %118, %107
  br label %137

137:                                              ; preds = %136
  %138 = load i32, i32* %5, align 4
  %139 = add nsw i32 %138, 1
  store i32 %139, i32* %5, align 4
  br label %103

140:                                              ; preds = %103
  br label %141

141:                                              ; preds = %140
  %142 = load i32, i32* %4, align 4
  %143 = add nsw i32 %142, 1
  store i32 %143, i32* %4, align 4
  br label %98

144:                                              ; preds = %98
  store i32 0, i32* %4, align 4
  br label %145

145:                                              ; preds = %164, %144
  %146 = load i32, i32* %4, align 4
  %147 = load i32, i32* %3, align 4
  %148 = icmp slt i32 %146, %147
  br i1 %148, label %149, label %167

149:                                              ; preds = %145
  %150 = load i32, i32* %4, align 4
  %151 = sext i32 %150 to i64
  %152 = getelementptr inbounds [100 x %struct.patient], [100 x %struct.patient]* %7, i64 0, i64 %151
  %153 = getelementptr inbounds %struct.patient, %struct.patient* %152, i32 0, i32 1
  %154 = load i32, i32* %153, align 4
  %155 = icmp slt i32 %154, 60
  br i1 %155, label %156, label %163

156:                                              ; preds = %149
  %157 = load i32, i32* %4, align 4
  %158 = sext i32 %157 to i64
  %159 = getelementptr inbounds [100 x %struct.patient], [100 x %struct.patient]* %7, i64 0, i64 %158
  %160 = getelementptr inbounds %struct.patient, %struct.patient* %159, i32 0, i32 0
  %161 = getelementptr inbounds [11 x i8], [11 x i8]* %160, i64 0, i64 0
  %162 = call i32 (i8*, ...) @printf(i8* getelementptr inbounds ([4 x i8], [4 x i8]* @.str.2, i64 0, i64 0), i8* %161)
  br label %163

163:                                              ; preds = %156, %149
  br label %164

164:                                              ; preds = %163
  %165 = load i32, i32* %4, align 4
  %166 = add nsw i32 %165, 1
  store i32 %166, i32* %4, align 4
  br label %145

167:                                              ; preds = %145
  ret i32 0
}

declare dso_local i32 @__isoc99_scanf(i8*, ...) #1

declare dso_local i32 @printf(i8*, ...) #1


!llvm.module.flags = !{!0}
!llvm.ident = !{!1}

!0 = !{i32 1, !"wchar_size", i32 4}
!1 = !{!"clang version 10.0.0-4ubuntu1 "}
